; Function Attrs: mustprogress nofree norecurse nosync nounwind willreturn memory(read, inaccessiblemem: none) uwtable
define noundef nonnull align 8 dereferenceable(56) ptr @_ZNK32pxrInternal_v0_24__pxrReserved__22HdDataSourceLocatorSet20IntersectionIteratordeEv(ptr noundef nonnull readonly align 8 dereferenceable(80) %0) local_unnamed_addr #7 align 2 personality ptr @__gxx_personality_v0 {
  %2 = load i8, ptr %0, align 8
  %3 = trunc i8 %2 to i1
  br i1 %3, label %4, label %._ZNK32pxrInternal_v0_24__pxrReserved__19HdDataSourceLocator9HasPrefixERKS0_.exit_crit_edge

._ZNK32pxrInternal_v0_24__pxrReserved__19HdDataSourceLocator9HasPrefixERKS0_.exit_crit_edge: ; preds = %1
  %.phi.trans.insert = getelementptr inbounds nuw i8, ptr %0, i64 8
  %.pre = load ptr, ptr %.phi.trans.insert, align 8
  br label %_ZNK32pxrInternal_v0_24__pxrReserved__19HdDataSourceLocator9HasPrefixERKS0_.exit.thread

4:                                                ; preds = %1
  %5 = getelementptr inbounds nuw i8, ptr %0, i64 24
  %6 = getelementptr inbounds nuw i8, ptr %0, i64 8
  %7 = load ptr, ptr %6, align 8
  %8 = getelementptr inbounds nuw i8, ptr %7, i64 48
  %9 = load i32, ptr %8, align 8
  %10 = icmp eq i32 %9, 0
  br i1 %10, label %_ZNK32pxrInternal_v0_24__pxrReserved__19HdDataSourceLocator9HasPrefixERKS0_.exit.thread, label %11

11:                                               ; preds = %4
  %12 = zext i32 %9 to i64
  %13 = getelementptr inbounds i8, ptr %0, i64 72
  %14 = load i32, ptr %13, align 8
  %15 = icmp ugt i32 %9, %14
  br i1 %15, label %_ZNK32pxrInternal_v0_24__pxrReserved__19HdDataSourceLocator9HasPrefixERKS0_.exit.thread, label %.preheader.i

.preheader.i:                                     ; preds = %11
  %16 = getelementptr inbounds i8, ptr %0, i64 76
  %17 = load i32, ptr %16, align 4
  %18 = icmp ult i32 %17, 7
  %19 = load ptr, ptr %5, align 8
  %spec.select.i.i.i.i = select i1 %18, ptr %5, ptr %19
  %20 = getelementptr inbounds nuw i8, ptr %7, i64 52
  %21 = load i32, ptr %20, align 4
  %22 = icmp ult i32 %21, 7
  %23 = load ptr, ptr %7, align 8
  %spec.select.i.i.i11.i = select i1 %22, ptr %7, ptr %23
  br label %26

24:                                               ; preds = %26
  %25 = add nuw nsw i64 %.01012.i, 1
  %exitcond.not.i = icmp eq i64 %25, %12
  br i1 %exitcond.not.i, label %_ZNK32pxrInternal_v0_24__pxrReserved__19HdDataSourceLocator9HasPrefixERKS0_.exit.thread, label %26, !llvm.loop !12

26:                                               ; preds = %24, %.preheader.i
  %.01012.i = phi i64 [ 0, %.preheader.i ], [ %25, %24 ]
  %27 = getelementptr inbounds %"class.pxrInternal_v0_24__pxrReserved__::TfToken", ptr %spec.select.i.i.i.i, i64 %.01012.i
  %28 = getelementptr inbounds %"class.pxrInternal_v0_24__pxrReserved__::TfToken", ptr %spec.select.i.i.i11.i, i64 %.01012.i
  %29 = load ptr, ptr %27, align 8
  %30 = ptrtoint ptr %29 to i64
  %31 = and i64 %30, -8
  %32 = inttoptr i64 %31 to ptr
  %33 = load ptr, ptr %28, align 8
  %34 = ptrtoint ptr %33 to i64
  %35 = and i64 %34, -8
  %36 = inttoptr i64 %35 to ptr
  %.not.i = icmp eq ptr %32, %36
  br i1 %.not.i, label %24, label %_ZNK32pxrInternal_v0_24__pxrReserved__19HdDataSourceLocator9HasPrefixERKS0_.exit.thread

_ZNK32pxrInternal_v0_24__pxrReserved__19HdDataSourceLocator9HasPrefixERKS0_.exit.thread: ; preds = %24, %26, %11, %._ZNK32pxrInternal_v0_24__pxrReserved__19HdDataSourceLocator9HasPrefixERKS0_.exit_crit_edge, %4
  %.0 = phi ptr [ %5, %4 ], [ %.pre, %._ZNK32pxrInternal_v0_24__pxrReserved__19HdDataSourceLocator9HasPrefixERKS0_.exit_crit_edge ], [ %7, %11 ], [ %5, %24 ], [ %7, %26 ]
  ret ptr %.0
}